target datalayout = "e-m:e-p270:32:32-p271:32:32-p272:64:64-i64:64-i128:128-f80:128-n8:16:32:64-S128"
target triple = "x86_64-pc-linux-gnu"

%"class.std::vector" = type { %"struct.std::_Vector_base" }
%"struct.std::_Vector_base" = type { %"struct.std::_Vector_base<std::__cxx11::basic_string<char>, std::allocator<std::__cxx11::basic_string<char>>>::_Vector_impl" }
%"struct.std::_Vector_base<std::__cxx11::basic_string<char>, std::allocator<std::__cxx11::basic_string<char>>>::_Vector_impl" = type { %"struct.std::_Vector_base<std::__cxx11::basic_string<char>, std::allocator<std::__cxx11::basic_string<char>>>::_Vector_impl_data" }
%"struct.std::_Vector_base<std::__cxx11::basic_string<char>, std::allocator<std::__cxx11::basic_string<char>>>::_Vector_impl_data" = type { ptr, ptr, ptr }

@.str.6 = private unnamed_addr constant [60 x i8] c"Executing anlogic_fixcarry pass (fix invalid carry chain).\0A\00", align 1
@.str.7 = private unnamed_addr constant [22 x i8] c"No top module found.\0A\00", align 1

; Function Attrs: mustprogress nounwind uwtable
define linkonce_odr noundef i64 @_ZNKSt6vectorINSt7__cxx1112basic_stringIcSt11char_traitsIcESaIcEEESaIS5_EE4sizeEv(ptr noundef nonnull align 8 dereferenceable(24) %0) #5 comdat align 2 {
  %2 = alloca ptr, align 8
  store ptr %0, ptr %2, align 8
  %3 = load ptr, ptr %2, align 8
  %4 = getelementptr inbounds %"struct.std::_Vector_base", ptr %3, i32 0, i32 0
  %5 = getelementptr inbounds %"struct.std::_Vector_base<std::__cxx11::basic_string<char>, std::allocator<std::__cxx11::basic_string<char>>>::_Vector_impl_data", ptr %4, i32 0, i32 1
  %6 = load ptr, ptr %5, align 8
  %7 = getelementptr inbounds %"struct.std::_Vector_base", ptr %3, i32 0, i32 0
  %8 = getelementptr inbounds %"struct.std::_Vector_base<std::__cxx11::basic_string<char>, std::allocator<std::__cxx11::basic_string<char>>>::_Vector_impl_data", ptr %7, i32 0, i32 0
  %9 = load ptr, ptr %8, align 8
  %10 = ptrtoint ptr %6 to i64
  %11 = ptrtoint ptr %9 to i64
  %12 = sub i64 %10, %11
  %13 = sdiv exact i64 %12, 32
  ret i64 %13
}

; Function Attrs: mustprogress uwtable
define internal void @_ZN12_GLOBAL__N_119AnlogicCarryFixPass7executeESt6vectorINSt7__cxx1112basic_stringIcSt11char_traitsIcESaIcEEESaIS7_EEPN5Yosys5RTLIL6DesignE(ptr noundef nonnull align 8 dereferenceable(104) %0, ptr noundef %1, ptr noundef %2) unnamed_addr #4 align 2 personality ptr @__gxx_personality_v0 {
  %4 = alloca ptr, align 8
  %5 = alloca ptr, align 8
  %6 = alloca ptr, align 8
  %7 = alloca i64, align 8
  %8 = alloca %"class.std::vector", align 8
  %9 = alloca ptr, align 8
  %10 = alloca i32, align 4
  %11 = alloca ptr, align 8
  store ptr %0, ptr %4, align 8
  store ptr %1, ptr %5, align 8
  store ptr %2, ptr %6, align 8
  %12 = load ptr, ptr %4, align 8
  %13 = load ptr, ptr %6, align 8
  call void (ptr, ptr, ...) @_ZN5Yosys10log_headerEPNS_5RTLIL6DesignEPKcz(ptr noundef %13, ptr noundef @.str.6)
  store i64 1, ptr %7, align 8
  br label %14

14:                                               ; preds = %19, %3
  %15 = load i64, ptr %7, align 8
  %16 = call noundef i64 @_ZNKSt6vectorINSt7__cxx1112basic_stringIcSt11char_traitsIcESaIcEEESaIS5_EE4sizeEv(ptr noundef nonnull align 8 dereferenceable(24) %1) #3
  %17 = icmp ult i64 %15, %16
  br i1 %17, label %18, label %22

18:                                               ; preds = %14
  br label %22

19:                                               ; No predecessors!
  %20 = load i64, ptr %7, align 8
  %21 = add i64 %20, 1
  store i64 %21, ptr %7, align 8
  br label %14, !llvm.loop !6

22:                                               ; preds = %18, %14
  call void @_ZNSt6vectorINSt7__cxx1112basic_stringIcSt11char_traitsIcESaIcEEESaIS5_EEC2ERKS7_(ptr noundef nonnull align 8 dereferenceable(24) %8, ptr noundef nonnull align 8 dereferenceable(24) %1)
  %23 = load i64, ptr %7, align 8
  %24 = load ptr, ptr %6, align 8
  invoke void @_ZN5Yosys4Pass10extra_argsESt6vectorINSt7__cxx1112basic_stringIcSt11char_traitsIcESaIcEEESaIS7_EEmPNS_5RTLIL6DesignEb(ptr noundef nonnull align 8 dereferenceable(104) %12, ptr noundef %8, i64 noundef %23, ptr noundef %24, i1 noundef zeroext true)
          to label %25 unwind label %31

25:                                               ; preds = %22
  call void @_ZNSt6vectorINSt7__cxx1112basic_stringIcSt11char_traitsIcESaIcEEESaIS5_EED2Ev(ptr noundef nonnull align 8 dereferenceable(24) %8) #3
  %26 = load ptr, ptr %6, align 8
  %27 = call noundef ptr @_ZN5Yosys5RTLIL6Design10top_moduleEv(ptr noundef nonnull align 8 dereferenceable(376) %26)
  store ptr %27, ptr %11, align 8
  %28 = load ptr, ptr %11, align 8
  %29 = icmp eq ptr %28, null
  br i1 %29, label %30, label %35

30:                                               ; preds = %25
  call void (ptr, ...) @_ZN5Yosys13log_cmd_errorEPKcz(ptr noundef @.str.7) #13
  unreachable

31:                                               ; preds = %22
  %32 = landingpad { ptr, i32 }
          cleanup
  %33 = extractvalue { ptr, i32 } %32, 0
  store ptr %33, ptr %9, align 8
  %34 = extractvalue { ptr, i32 } %32, 1
  store i32 %34, ptr %10, align 4
  call void @_ZNSt6vectorINSt7__cxx1112basic_stringIcSt11char_traitsIcESaIcEEESaIS5_EED2Ev(ptr noundef nonnull align 8 dereferenceable(24) %8) #3
  br label %37

35:                                               ; preds = %25
  %36 = load ptr, ptr %11, align 8
  call void @_ZN12_GLOBAL__N_115fix_carry_chainEPN5Yosys5RTLIL6ModuleE(ptr noundef %36)
  ret void

37:                                               ; preds = %31
  %38 = load ptr, ptr %9, align 8
  %39 = load i32, ptr %10, align 4
  %40 = insertvalue { ptr, i32 } poison, ptr %38, 0
  %41 = insertvalue { ptr, i32 } %40, i32 %39, 1
  resume { ptr, i32 } %41
}